; Function Attrs: mustprogress uwtable
define void @_ZNK19OpenColorIO_v2_5dev13ViewTransform18createEditableCopyEv(ptr dead_on_unwind noalias writable sret(%"class.std::shared_ptr") align 8 %0, ptr noundef nonnull readonly align 8 captures(none) dereferenceable(8) %1) local_unnamed_addr #0 align 2 personality ptr @__gxx_personality_v0 {
  %3 = load ptr, ptr %1, align 8, !tbaa !22
  %4 = getelementptr inbounds nuw i8, ptr %3, i64 96
  %5 = load i32, ptr %4, align 8, !tbaa !25
  tail call void @_ZN19OpenColorIO_v2_5dev13ViewTransform6CreateENS_18ReferenceSpaceTypeE(ptr dead_on_unwind writable sret(%"class.std::shared_ptr") align 8 %0, i32 noundef %5)
  %6 = load ptr, ptr %1, align 8, !tbaa !22
  %7 = load ptr, ptr %0, align 8, !tbaa !3
  %8 = load ptr, ptr %7, align 8, !tbaa !22
  %9 = invoke noundef nonnull align 8 dereferenceable(168) ptr @_ZN19OpenColorIO_v2_5dev13ViewTransform4ImplaSERKS1_(ptr noundef nonnull align 8 dereferenceable(168) %8, ptr noundef nonnull align 8 dereferenceable(168) %6)
          to label %12 unwind label %10

10:                                               ; preds = %2
  %11 = landingpad { ptr, i32 }
          cleanup
  tail call void @_ZNSt12__shared_ptrIN19OpenColorIO_v2_5dev13ViewTransformELN9__gnu_cxx12_Lock_policyE2EED2Ev(ptr noundef nonnull align 8 dereferenceable(16) %0) #23
  resume { ptr, i32 } %11

12:                                               ; preds = %2
  ret void
}